target datalayout = "e-m:e-p270:32:32-p271:32:32-p272:64:64-i64:64-i128:128-f80:128-n8:16:32:64-S128"
target triple = "x86_64-pc-linux-gnu"

%struct.PS_Builder_FuncsRec_ = type { ptr, ptr }
%struct.FT_BBox_ = type { i64, i64, i64, i64 }
%struct.FT_Vector_ = type { i64, i64 }
%struct.PS_Builder_ = type { ptr, ptr, ptr, ptr, ptr, ptr, ptr, ptr, ptr, ptr, ptr, i8, i8, i8, i8, i8, %struct.PS_Builder_FuncsRec_ }
%struct.FT_Generic_ = type { ptr, ptr }
%struct.FT_FaceRec_ = type { i64, i64, i64, i64, i64, ptr, ptr, i32, ptr, i32, ptr, %struct.FT_Generic_, %struct.FT_BBox_, i16, i16, i16, i16, i16, i16, i16, i16, ptr, ptr, ptr, ptr, ptr, ptr, %struct.FT_ListRec_, %struct.FT_Generic_, ptr, ptr }
%struct.FT_ListRec_ = type { ptr, ptr }
%struct.FT_Matrix_ = type { i64, i64, i64, i64 }
%struct.CF2_BufferRec_ = type { ptr, ptr, ptr, ptr }
%struct.PS_Decoder_ = type { %struct.PS_Builder_, [49 x i64], ptr, [17 x %struct.PS_Decoder_Zone_], ptr, i32, i32, [7 x %struct.FT_Vector_], ptr, ptr, ptr, ptr, i8, i32, i32, i32, i32, i32, ptr, ptr, ptr, i32, i32, i8, ptr, ptr, ptr, i32, ptr, ptr, %struct.FT_Matrix_, %struct.FT_Vector_, ptr, ptr, i32 }
%struct.PS_Decoder_Zone_ = type { ptr, ptr, ptr }
%struct.FT_Face_InternalRec_ = type { %struct.FT_Matrix_, %struct.FT_Vector_, i32, %struct.FT_ServiceCacheRec_, ptr, i8, i32, i32 }
%struct.FT_ServiceCacheRec_ = type { ptr, ptr, ptr, ptr, ptr, ptr }
%struct.FT_CharMapRec_ = type { ptr, i32, i16, i16 }
%struct.T1_FaceRec_ = type { %struct.FT_FaceRec_, %struct.T1_FontRec_, ptr, ptr, ptr, [2 x %struct.FT_CharMapRec_], [2 x ptr], ptr, i32, i32, i32, ptr, ptr }
%struct.T1_FontRec_ = type { %struct.PS_FontInfoRec_, %struct.PS_FontExtraRec_, %struct.PS_PrivateRec_, ptr, i32, %struct.T1_EncodingRecRec_, ptr, ptr, ptr, i32, ptr, ptr, ptr, i32, ptr, ptr, ptr, i8, i8, %struct.FT_Matrix_, %struct.FT_Vector_, %struct.FT_BBox_, i64, i64 }
%struct.PS_FontInfoRec_ = type { ptr, ptr, ptr, ptr, ptr, i64, i8, i16, i16 }
%struct.PS_FontExtraRec_ = type { i16 }
%struct.PS_PrivateRec_ = type { i32, i32, i8, i8, i8, i8, [14 x i16], [10 x i16], [14 x i16], [10 x i16], i64, i32, i32, [1 x i16], [1 x i16], i8, i8, i8, i8, [13 x i16], [13 x i16], i64, i64, i64, [2 x i16] }
%struct.T1_EncodingRecRec_ = type { i32, i32, i32, ptr, ptr }
%struct.FT_Data_ = type { ptr, i32 }
%struct.FT_Incremental_InterfaceRec_ = type { ptr, ptr }
%struct.FT_Incremental_FuncsRec_ = type { ptr, ptr, ptr }

; Function Attrs: nounwind uwtable
define internal i32 @cf2_getT1SeacComponent(ptr noundef %0, i32 noundef %1, ptr noundef %2) #0 {
  %4 = alloca ptr, align 8
  %5 = alloca i32, align 4
  %6 = alloca ptr, align 8
  %7 = alloca %struct.FT_Data_, align 8
  %8 = alloca i32, align 4
  %9 = alloca ptr, align 8
  %10 = alloca ptr, align 8
  %11 = alloca ptr, align 8
  %12 = alloca ptr, align 8
  %13 = alloca i64, align 8
  store ptr %0, ptr %4, align 8
  store i32 %1, ptr %5, align 4
  store ptr %2, ptr %6, align 8
  store i32 0, ptr %8, align 4
  %14 = load ptr, ptr %4, align 8
  %15 = getelementptr inbounds %struct.PS_Decoder_, ptr %14, i32 0, i32 0
  %16 = getelementptr inbounds %struct.PS_Builder_, ptr %15, i32 0, i32 1
  %17 = load ptr, ptr %16, align 8
  store ptr %17, ptr %9, align 8
  %18 = load ptr, ptr %9, align 8
  %19 = getelementptr inbounds %struct.T1_FaceRec_, ptr %18, i32 0, i32 1
  store ptr %19, ptr %10, align 8
  %20 = load ptr, ptr %9, align 8
  %21 = getelementptr inbounds %struct.T1_FaceRec_, ptr %20, i32 0, i32 0
  %22 = getelementptr inbounds %struct.FT_FaceRec_, ptr %21, i32 0, i32 30
  %23 = load ptr, ptr %22, align 8
  %24 = getelementptr inbounds %struct.FT_Face_InternalRec_, ptr %23, i32 0, i32 4
  %25 = load ptr, ptr %24, align 8
  store ptr %25, ptr %11, align 8
  %26 = load ptr, ptr %11, align 8
  %27 = icmp ne ptr %26, null
  br i1 %27, label %28, label %39

28:                                               ; preds = %3
  %29 = load ptr, ptr %11, align 8
  %30 = getelementptr inbounds %struct.FT_Incremental_InterfaceRec_, ptr %29, i32 0, i32 0
  %31 = load ptr, ptr %30, align 8
  %32 = getelementptr inbounds %struct.FT_Incremental_FuncsRec_, ptr %31, i32 0, i32 0
  %33 = load ptr, ptr %32, align 8
  %34 = load ptr, ptr %11, align 8
  %35 = getelementptr inbounds %struct.FT_Incremental_InterfaceRec_, ptr %34, i32 0, i32 1
  %36 = load ptr, ptr %35, align 8
  %37 = load i32, ptr %5, align 4
  %38 = call i32 %33(ptr noundef %36, i32 noundef %37, ptr noundef %7)
  store i32 %38, ptr %8, align 4
  br label %56

39:                                               ; preds = %3
  %40 = load ptr, ptr %10, align 8
  %41 = getelementptr inbounds %struct.T1_FontRec_, ptr %40, i32 0, i32 15
  %42 = load ptr, ptr %41, align 8
  %43 = load i32, ptr %5, align 4
  %44 = zext i32 %43 to i64
  %45 = getelementptr inbounds ptr, ptr %42, i64 %44
  %46 = load ptr, ptr %45, align 8
  %47 = getelementptr inbounds %struct.FT_Data_, ptr %7, i32 0, i32 0
  store ptr %46, ptr %47, align 8
  %48 = load ptr, ptr %10, align 8
  %49 = getelementptr inbounds %struct.T1_FontRec_, ptr %48, i32 0, i32 16
  %50 = load ptr, ptr %49, align 8
  %51 = load i32, ptr %5, align 4
  %52 = zext i32 %51 to i64
  %53 = getelementptr inbounds i32, ptr %50, i64 %52
  %54 = load i32, ptr %53, align 4
  %55 = getelementptr inbounds %struct.FT_Data_, ptr %7, i32 0, i32 1
  store i32 %54, ptr %55, align 8
  br label %56

56:                                               ; preds = %39, %28
  %57 = load i32, ptr %8, align 4
  %58 = icmp ne i32 %57, 0
  br i1 %58, label %78, label %59

59:                                               ; preds = %56
  %60 = getelementptr inbounds %struct.FT_Data_, ptr %7, i32 0, i32 0
  %61 = load ptr, ptr %60, align 8
  store ptr %61, ptr %12, align 8
  %62 = getelementptr inbounds %struct.FT_Data_, ptr %7, i32 0, i32 1
  %63 = load i32, ptr %62, align 8
  %64 = zext i32 %63 to i64
  store i64 %64, ptr %13, align 8
  br label %65

65:                                               ; preds = %59
  br label %66

66:                                               ; preds = %65
  %67 = load ptr, ptr %6, align 8
  call void @llvm.memset.p0.i64(ptr align 8 %67, i8 0, i64 32, i1 false)
  %68 = load ptr, ptr %12, align 8
  %69 = load ptr, ptr %6, align 8
  %70 = getelementptr inbounds %struct.CF2_BufferRec_, ptr %69, i32 0, i32 3
  store ptr %68, ptr %70, align 8
  %71 = load ptr, ptr %6, align 8
  %72 = getelementptr inbounds %struct.CF2_BufferRec_, ptr %71, i32 0, i32 1
  store ptr %68, ptr %72, align 8
  %73 = load ptr, ptr %12, align 8
  %74 = load i64, ptr %13, align 8
  %75 = getelementptr inbounds i8, ptr %73, i64 %74
  %76 = load ptr, ptr %6, align 8
  %77 = getelementptr inbounds %struct.CF2_BufferRec_, ptr %76, i32 0, i32 2
  store ptr %75, ptr %77, align 8
  br label %78

78:                                               ; preds = %66, %56
  %79 = load i32, ptr %8, align 4
  ret i32 %79
}