; Function Attrs: nounwind uwtable
define internal fastcc i32 @cf2_getT1SeacComponent(ptr readonly captures(none) %.8.val, i32 noundef range(i32 0, -2147483648) %0, ptr noundef nonnull writeonly captures(none) %1) unnamed_addr #0 {
  %3 = alloca %struct.FT_Data_, align 8
  %4 = getelementptr inbounds nuw i8, ptr %.8.val, i64 240
  %5 = load ptr, ptr %4, align 8
  %6 = getelementptr inbounds nuw i8, ptr %5, i64 104
  %7 = load ptr, ptr %6, align 8
  %.not = icmp eq ptr %7, null
  br i1 %.not, label %.thread, label %16

.thread:                                          ; preds = %2
  %8 = getelementptr inbounds nuw i8, ptr %.8.val, i64 656
  %9 = load ptr, ptr %8, align 8
  %10 = zext nneg i32 %0 to i64
  %11 = getelementptr inbounds nuw ptr, ptr %9, i64 %10
  %12 = getelementptr inbounds nuw i8, ptr %.8.val, i64 664
  %13 = load ptr, ptr %12, align 8
  %14 = getelementptr inbounds nuw i32, ptr %13, i64 %10
  %15 = load i32, ptr %14, align 4
  br label %22

16:                                               ; preds = %2
  %17 = load ptr, ptr %7, align 8
  %18 = load ptr, ptr %17, align 8
  %19 = getelementptr inbounds nuw i8, ptr %7, i64 8
  %20 = load ptr, ptr %19, align 8
  %21 = call i32 %18(ptr noundef %20, i32 noundef %0, ptr noundef nonnull %3) #20
  %.not20 = icmp eq i32 %21, 0
  br i1 %.not20, label %._crit_edge, label %30

._crit_edge:                                      ; preds = %16
  %.phi.trans.insert = getelementptr inbounds nuw i8, ptr %3, i64 8
  %.pre5 = load i32, ptr %.phi.trans.insert, align 8
  br label %22

22:                                               ; preds = %._crit_edge, %.thread
  %23 = phi i32 [ %.pre5, %._crit_edge ], [ %15, %.thread ]
  %.in = phi ptr [ %3, %._crit_edge ], [ %11, %.thread ]
  %24 = load ptr, ptr %.in, align 8
  %25 = zext i32 %23 to i64
  store i64 0, ptr %1, align 8
  %26 = getelementptr inbounds nuw i8, ptr %1, i64 24
  store ptr %24, ptr %26, align 8
  %27 = getelementptr inbounds nuw i8, ptr %1, i64 8
  store ptr %24, ptr %27, align 8
  %28 = getelementptr inbounds nuw i8, ptr %24, i64 %25
  %29 = getelementptr inbounds nuw i8, ptr %1, i64 16
  store ptr %28, ptr %29, align 8
  br label %30

30:                                               ; preds = %22, %16
  %.03 = phi i32 [ 0, %22 ], [ %21, %16 ]
  ret i32 %.03
}